; Function Attrs: nounwind uwtable
define internal fastcc range(i32 0, 2) i32 @dsa_precheck_params(ptr noundef readonly captures(none) %0, ptr noundef writeonly captures(none) %1) unnamed_addr #0 {
  %3 = getelementptr inbounds nuw i8, ptr %0, i64 8
  %4 = load ptr, ptr %3, align 8, !tbaa !20
  %5 = icmp eq ptr %4, null
  br i1 %5, label %.sink.split, label %6

6:                                                ; preds = %2
  %7 = getelementptr inbounds nuw i8, ptr %0, i64 16
  %8 = load ptr, ptr %7, align 8, !tbaa !21
  %9 = icmp eq ptr %8, null
  br i1 %9, label %.sink.split, label %10

10:                                               ; preds = %6
  %11 = tail call i32 @BN_num_bits(ptr noundef nonnull %4) #2
  %12 = icmp sgt i32 %11, 10000
  br i1 %12, label %.sink.split, label %13

13:                                               ; preds = %10
  %14 = load ptr, ptr %7, align 8, !tbaa !21
  %15 = tail call i32 @BN_num_bits(ptr noundef %14) #2
  %16 = load ptr, ptr %3, align 8, !tbaa !20
  %17 = tail call i32 @BN_num_bits(ptr noundef %16) #2
  %.not = icmp slt i32 %15, %17
  br i1 %.not, label %18, label %.sink.split

.sink.split:                                      ; preds = %13, %10, %2, %6
  %.sink9 = phi i32 [ 25, %6 ], [ 25, %2 ], [ 31, %10 ], [ 37, %13 ]
  %.sink = phi i32 [ 114, %6 ], [ 114, %2 ], [ 103, %10 ], [ 102, %13 ]
  tail call void @ERR_new() #2
  tail call void @ERR_set_debug(ptr noundef nonnull @.str, i32 noundef %.sink9, ptr noundef nonnull @__func__.dsa_precheck_params) #2
  tail call void (i32, i32, ptr, ...) @ERR_set_error(i32 noundef 10, i32 noundef %.sink, ptr noundef null) #2
  store i32 2048, ptr %1, align 4, !tbaa !22
  br label %18

18:                                               ; preds = %.sink.split, %13
  %.0 = phi i32 [ 1, %13 ], [ 0, %.sink.split ]
  ret i32 %.0
}